target datalayout = "e-m:e-p270:32:32-p271:32:32-p272:64:64-i64:64-i128:128-f80:128-n8:16:32:64-S128"
target triple = "x86_64-pc-linux-gnu"

@.str.7 = private unnamed_addr constant [11 x i8] c"hostlist.c\00", align 1
@__func__.hostlist_deranged_string_xmalloc_dims = private unnamed_addr constant [38 x i8] c"hostlist_deranged_string_xmalloc_dims\00", align 1

; Function Attrs: nounwind uwtable
define dso_local ptr @hostlist_deranged_string_xmalloc_dims(ptr noundef %0, i32 noundef %1) #0 {
  %3 = alloca ptr, align 8
  %4 = alloca i32, align 4
  %5 = alloca i32, align 4
  %6 = alloca ptr, align 8
  store ptr %0, ptr %3, align 8
  store i32 %1, ptr %4, align 4
  call void @llvm.lifetime.start.p0(i64 4, ptr %5) #13
  store i32 8192, ptr %5, align 4
  call void @llvm.lifetime.start.p0(i64 8, ptr %6) #13
  %7 = load i32, ptr %5, align 4
  %8 = sext i32 %7 to i64
  %9 = call ptr @slurm_xcalloc(i64 noundef 1, i64 noundef %8, i1 noundef zeroext false, i1 noundef zeroext false, ptr noundef @.str.7, i32 noundef 2343, ptr noundef @__func__.hostlist_deranged_string_xmalloc_dims)
  store ptr %9, ptr %6, align 8
  %10 = load i32, ptr %4, align 4
  %11 = icmp ne i32 %10, 0
  br i1 %11, label %15, label %12

12:                                               ; preds = %2
  %13 = call zeroext i16 @slurmdb_setup_cluster_dims()
  %14 = zext i16 %13 to i32
  store i32 %14, ptr %4, align 4
  br label %15

15:                                               ; preds = %12, %2
  br label %16

16:                                               ; preds = %24, %15
  %17 = load ptr, ptr %3, align 8
  %18 = load i32, ptr %5, align 4
  %19 = sext i32 %18 to i64
  %20 = load ptr, ptr %6, align 8
  %21 = load i32, ptr %4, align 4
  %22 = call i64 @hostlist_deranged_string_dims(ptr noundef %17, i64 noundef %19, ptr noundef %20, i32 noundef %21)
  %23 = icmp slt i64 %22, 0
  br i1 %23, label %24, label %30

24:                                               ; preds = %16
  %25 = load i32, ptr %5, align 4
  %26 = mul nsw i32 %25, 2
  store i32 %26, ptr %5, align 4
  %27 = load i32, ptr %5, align 4
  %28 = sext i32 %27 to i64
  %29 = call ptr @slurm_xrecalloc(ptr noundef %6, i64 noundef 1, i64 noundef %28, i1 noundef zeroext false, i1 noundef zeroext false, ptr noundef @.str.7, i32 noundef 2350, ptr noundef @__func__.hostlist_deranged_string_xmalloc_dims)
  br label %16, !llvm.loop !16

30:                                               ; preds = %16
  %31 = load ptr, ptr %6, align 8
  call void @llvm.lifetime.end.p0(i64 8, ptr %6) #13
  call void @llvm.lifetime.end.p0(i64 4, ptr %5) #13
  ret ptr %31
}