; Function Attrs: nounwind uwtable
define dso_local ptr @hostlist_deranged_string_xmalloc_dims(ptr noundef %0, i32 noundef %1) #0 {
  %3 = alloca ptr, align 8
  call void @llvm.lifetime.start.p0(i64 8, ptr nonnull %3) #22
  %4 = tail call ptr @slurm_xcalloc(i64 noundef 1, i64 noundef 8192, i1 noundef zeroext false, i1 noundef zeroext false, ptr noundef nonnull @.str.7, i32 noundef 2343, ptr noundef nonnull @__func__.hostlist_deranged_string_xmalloc_dims) #22
  store ptr %4, ptr %3, align 8
  %.not = icmp eq i32 %1, 0
  br i1 %.not, label %5, label %8

5:                                                ; preds = %2
  %6 = tail call zeroext i16 @slurmdb_setup_cluster_dims() #22
  %7 = zext i16 %6 to i32
  br label %8

8:                                                ; preds = %5, %2
  %.06 = phi i32 [ %1, %2 ], [ %7, %5 ]
  %9 = tail call i64 @hostlist_deranged_string_dims(ptr noundef %0, i64 noundef 8192, ptr noundef %4, i32 noundef %.06)
  %10 = icmp slt i64 %9, 0
  br i1 %10, label %.lr.ph, label %._crit_edge

.lr.ph:                                           ; preds = %8, %.lr.ph
  %.08 = phi i32 [ %11, %.lr.ph ], [ 8192, %8 ]
  %11 = shl nsw i32 %.08, 1
  %12 = sext i32 %11 to i64
  %13 = call ptr @slurm_xrecalloc(ptr noundef nonnull %3, i64 noundef 1, i64 noundef %12, i1 noundef zeroext false, i1 noundef zeroext false, ptr noundef nonnull @.str.7, i32 noundef 2350, ptr noundef nonnull @__func__.hostlist_deranged_string_xmalloc_dims) #22
  %14 = zext nneg i32 %11 to i64
  %15 = load ptr, ptr %3, align 8
  %16 = call i64 @hostlist_deranged_string_dims(ptr noundef %0, i64 noundef %14, ptr noundef %15, i32 noundef %.06)
  %17 = icmp slt i64 %16, 0
  br i1 %17, label %.lr.ph, label %._crit_edge.loopexit, !llvm.loop !20

._crit_edge.loopexit:                             ; preds = %.lr.ph
  %.pre = load ptr, ptr %3, align 8
  br label %._crit_edge

._crit_edge:                                      ; preds = %._crit_edge.loopexit, %8
  %18 = phi ptr [ %.pre, %._crit_edge.loopexit ], [ %4, %8 ]
  call void @llvm.lifetime.end.p0(i64 8, ptr nonnull %3) #22
  ret ptr %18
}